target datalayout = "e-m:e-p270:32:32-p271:32:32-p272:64:64-i64:64-i128:128-f80:128-n8:16:32:64-S128"
target triple = "x86_64-pc-linux-gnu"

%struct.quic_txpim_st = type { %struct.quic_txpim_pkt_ex_list, i64 }
%struct.quic_txpim_pkt_ex_list = type { ptr, ptr }
%struct.quic_txpim_pkt_ex_st = type { %struct.quic_txpim_pkt_st, ptr, ptr, ptr, i64, i64, i8 }
%struct.quic_txpim_pkt_st = type { %struct.ossl_ackm_tx_pkt_st, ptr, ptr, i8, i8 }
%struct.ossl_ackm_tx_pkt_st = type { i64, i64, %struct.OSSL_TIME, i64, i8, ptr, ptr, ptr, ptr, %struct.anon, ptr, ptr }
%struct.OSSL_TIME = type { i64 }
%struct.anon = type { ptr, ptr }

; Function Attrs: nounwind uwtable
define internal void @list_insert_tail(ptr noundef %0, ptr noundef %1) #0 {
  %3 = alloca ptr, align 8
  %4 = alloca ptr, align 8
  store ptr %0, ptr %3, align 8, !tbaa !8
  store ptr %1, ptr %4, align 8, !tbaa !13
  %5 = load ptr, ptr %3, align 8, !tbaa !8
  %6 = getelementptr inbounds nuw %struct.quic_txpim_pkt_ex_list, ptr %5, i32 0, i32 1
  %7 = load ptr, ptr %6, align 8, !tbaa !29
  %8 = load ptr, ptr %4, align 8, !tbaa !13
  %9 = getelementptr inbounds nuw %struct.quic_txpim_pkt_ex_st, ptr %8, i32 0, i32 1
  store ptr %7, ptr %9, align 8, !tbaa !35
  %10 = load ptr, ptr %4, align 8, !tbaa !13
  %11 = getelementptr inbounds nuw %struct.quic_txpim_pkt_ex_st, ptr %10, i32 0, i32 2
  store ptr null, ptr %11, align 8, !tbaa !14
  %12 = load ptr, ptr %4, align 8, !tbaa !13
  %13 = load ptr, ptr %3, align 8, !tbaa !8
  %14 = getelementptr inbounds nuw %struct.quic_txpim_pkt_ex_list, ptr %13, i32 0, i32 1
  store ptr %12, ptr %14, align 8, !tbaa !29
  %15 = load ptr, ptr %4, align 8, !tbaa !13
  %16 = getelementptr inbounds nuw %struct.quic_txpim_pkt_ex_st, ptr %15, i32 0, i32 1
  %17 = load ptr, ptr %16, align 8, !tbaa !35
  %18 = icmp ne ptr %17, null
  br i1 %18, label %19, label %25

19:                                               ; preds = %2
  %20 = load ptr, ptr %4, align 8, !tbaa !13
  %21 = load ptr, ptr %4, align 8, !tbaa !13
  %22 = getelementptr inbounds nuw %struct.quic_txpim_pkt_ex_st, ptr %21, i32 0, i32 1
  %23 = load ptr, ptr %22, align 8, !tbaa !35
  %24 = getelementptr inbounds nuw %struct.quic_txpim_pkt_ex_st, ptr %23, i32 0, i32 2
  store ptr %20, ptr %24, align 8, !tbaa !14
  br label %25

25:                                               ; preds = %19, %2
  %26 = load ptr, ptr %3, align 8, !tbaa !8
  %27 = getelementptr inbounds nuw %struct.quic_txpim_pkt_ex_list, ptr %26, i32 0, i32 0
  %28 = load ptr, ptr %27, align 8, !tbaa !10
  %29 = icmp eq ptr %28, null
  br i1 %29, label %30, label %34

30:                                               ; preds = %25
  %31 = load ptr, ptr %4, align 8, !tbaa !13
  %32 = load ptr, ptr %3, align 8, !tbaa !8
  %33 = getelementptr inbounds nuw %struct.quic_txpim_pkt_ex_list, ptr %32, i32 0, i32 0
  store ptr %31, ptr %33, align 8, !tbaa !10
  br label %34

34:                                               ; preds = %30, %25
  ret void
}

; Function Attrs: nounwind uwtable
define void @ossl_quic_txpim_pkt_release(ptr noundef %0, ptr noundef %1) #0 {
  %3 = alloca ptr, align 8
  %4 = alloca ptr, align 8
  %5 = alloca ptr, align 8
  store ptr %0, ptr %3, align 8, !tbaa !3
  store ptr %1, ptr %4, align 8, !tbaa !36
  call void @llvm.lifetime.start.p0(i64 8, ptr %5) #5
  %6 = load ptr, ptr %4, align 8, !tbaa !36
  store ptr %6, ptr %5, align 8, !tbaa !13
  %7 = load ptr, ptr %3, align 8, !tbaa !3
  %8 = getelementptr inbounds nuw %struct.quic_txpim_st, ptr %7, i32 0, i32 1
  %9 = load i64, ptr %8, align 8, !tbaa !30
  %10 = add i64 %9, -1
  store i64 %10, ptr %8, align 8, !tbaa !30
  %11 = load ptr, ptr %3, align 8, !tbaa !3
  %12 = getelementptr inbounds nuw %struct.quic_txpim_st, ptr %11, i32 0, i32 0
  %13 = load ptr, ptr %5, align 8, !tbaa !13
  call void @list_insert_tail(ptr noundef %12, ptr noundef %13)
  call void @llvm.lifetime.end.p0(i64 8, ptr %5) #5
  ret void
}