; Function Attrs: mustprogress nofree norecurse nosync nounwind willreturn memory(write, argmem: readwrite, inaccessiblemem: none) uwtable
define void @ossl_quic_txpim_pkt_release(ptr noundef captures(none) %0, ptr noundef initializes((128, 144)) %1) local_unnamed_addr #2 {
  %3 = getelementptr inbounds nuw i8, ptr %0, i64 16
  %4 = load i64, ptr %3, align 8, !tbaa !29
  %5 = add i64 %4, -1
  store i64 %5, ptr %3, align 8, !tbaa !29
  %6 = getelementptr inbounds nuw i8, ptr %0, i64 8
  %7 = load ptr, ptr %6, align 8, !tbaa !26
  %8 = getelementptr inbounds nuw i8, ptr %1, i64 128
  store ptr %7, ptr %8, align 8, !tbaa !27
  %9 = getelementptr inbounds nuw i8, ptr %1, i64 136
  store ptr null, ptr %9, align 8, !tbaa !9
  store ptr %1, ptr %6, align 8, !tbaa !26
  %.not.i = icmp eq ptr %7, null
  br i1 %.not.i, label %12, label %10

10:                                               ; preds = %2
  %11 = getelementptr inbounds nuw i8, ptr %7, i64 136
  store ptr %1, ptr %11, align 8, !tbaa !9
  br label %12

12:                                               ; preds = %10, %2
  %13 = load ptr, ptr %0, align 8, !tbaa !3
  %14 = icmp eq ptr %13, null
  br i1 %14, label %15, label %list_insert_tail.exit

15:                                               ; preds = %12
  store ptr %1, ptr %0, align 8, !tbaa !3
  br label %list_insert_tail.exit

list_insert_tail.exit:                            ; preds = %12, %15
  ret void
}